
boot.o:     file format elf64-littleaarch64


Disassembly of section .text:

0000000000000000 <boot_entry>:
   0:	580008c0 	ldr	x0, 118 <uart_addr+0x8>
   4:	d518c000 	msr	vbar_el1, x0
   8:	580008c0 	ldr	x0, 120 <uart_addr+0x10>
   c:	9100001f 	mov	sp, x0
  10:	90000000 	adrp	x0, 0 <_tls0>
  14:	d51bd040 	msr	tpidr_el0, x0
  18:	94000000 	bl	58 <con_init>
  1c:	94000000 	bl	0 <main>
  20:	58000840 	ldr	x0, 128 <uart_addr+0x18>
  24:	94000000 	bl	84 <con_puts>

0000000000000028 <reboot>:
  28:	58000840 	ldr	x0, 130 <uart_addr+0x20>
  2c:	d1000400 	sub	x0, x0, #0x1
  30:	b5ffffe0 	cbnz	x0, 2c <reboot+0x4>
  34:	58000820 	ldr	x0, 138 <uart_addr+0x28>
  38:	94000000 	bl	84 <con_puts>
  3c:	58000820 	ldr	x0, 140 <uart_addr+0x30>
  40:	d4000002 	hvc	#0x0

0000000000000044 <smp_entry>:
  44:	580006a3 	ldr	x3, 118 <uart_addr+0x8>
  48:	d518c003 	msr	vbar_el1, x3
  4c:	f9400003 	ldr	x3, [x0]
  50:	9100007f 	mov	sp, x3
  54:	14000000 	b	0 <smp_newcpu>

0000000000000058 <con_init>:
  58:	580005c0 	ldr	x0, 110 <uart_addr>
  5c:	b900301f 	str	wzr, [x0, #48]
  60:	b900041f 	str	wzr, [x0, #4]
  64:	b900001f 	str	wzr, [x0]
  68:	52800041 	mov	w1, #0x2                   	// #2
  6c:	b9002401 	str	w1, [x0, #36]
  70:	52800161 	mov	w1, #0xb                   	// #11
  74:	b9002801 	str	w1, [x0, #40]
  78:	52806021 	mov	w1, #0x301                 	// #769
  7c:	b9003001 	str	w1, [x0, #48]
  80:	d65f03c0 	ret

0000000000000084 <con_puts>:
  84:	58000461 	ldr	x1, 110 <uart_addr>

0000000000000088 <loop>:
  88:	b9401823 	ldr	w3, [x1, #24]
  8c:	52800504 	mov	w4, #0x28                  	// #40
  90:	0a040063 	and	w3, w3, w4
  94:	35ffffa3 	cbnz	w3, 88 <loop>
  98:	39400002 	ldrb	w2, [x0]
  9c:	f100005f 	cmp	x2, #0x0
  a0:	54000180 	b.eq	d0 <done>  // b.none
  a4:	7100285f 	cmp	w2, #0xa
  a8:	540000e1 	b.ne	c4 <loop+0x3c>  // b.any
  ac:	528001a3 	mov	w3, #0xd                   	// #13
  b0:	f9000023 	str	x3, [x1]
  b4:	b9401823 	ldr	w3, [x1, #24]
  b8:	52800504 	mov	w4, #0x28                  	// #40
  bc:	0a040063 	and	w3, w3, w4
  c0:	35ffffa3 	cbnz	w3, b4 <loop+0x2c>
  c4:	f9000022 	str	x2, [x1]
  c8:	91000400 	add	x0, x0, #0x1
  cc:	17ffffef 	b	88 <loop>

00000000000000d0 <done>:
  d0:	d65f03c0 	ret

00000000000000d4 <con_getc>:
  d4:	580001e1 	ldr	x1, 110 <uart_addr>
  d8:	b9401822 	ldr	w2, [x1, #24]
  dc:	121c0042 	and	w2, w2, #0x10
  e0:	35ffffc2 	cbnz	w2, d8 <con_getc+0x4>
  e4:	b9400020 	ldr	w0, [x1]
  e8:	d65f03c0 	ret

00000000000000ec <con_peek>:
  ec:	d2800000 	mov	x0, #0x0                   	// #0
  f0:	58000101 	ldr	x1, 110 <uart_addr>
  f4:	b9401822 	ldr	w2, [x1, #24]
  f8:	121c0042 	and	w2, w2, #0x10
  fc:	35000042 	cbnz	w2, 104 <con_peek+0x18>
 100:	91000420 	add	x0, x1, #0x1
 104:	d65f03c0 	ret
 108:	d503201f 	nop
 10c:	d503201f 	nop

0000000000000110 <uart_addr>:
 110:	09000000 	.word	0x09000000
	...
 130:	3b9aca00 	.word	0x3b9aca00
	...
 140:	84000009 	.word	0x84000009
 144:	00000000 	.word	0x00000000
