
smp.o:     file format elf64-littleaarch64


Disassembly of section .text:

0000000000000000 <thd>:
    return rc;
}

static int
thd(struct thread * th)
{
   0:	a9be7bfd 	stp	x29, x30, [sp, #-32]!
   4:	910003fd 	mov	x29, sp
   8:	f9000bf3 	str	x19, [sp, #16]
   c:	aa0003f3 	mov	x19, x0

static inline u64
armv8_get_tp(void)
{
    u64 tp;
    asm volatile("mrs %0, tpidr_el0" : "=r" (tp) : : );
  10:	d53bd040 	mrs	x0, tpidr_el0
    printf("thread %d: cpu(%d) arg(%x)\n", th->thno, cpu_id(), th->arg0);
  14:	f9401263 	ldr	x3, [x19, #32]
  18:	b9400802 	ldr	w2, [x0, #8]
  1c:	f9400661 	ldr	x1, [x19, #8]
  20:	90000000 	adrp	x0, 0 <thd>
  24:	91000000 	add	x0, x0, #0x0
  28:	94000000 	bl	0 <printf>

//#if 0
    if (th->thno == 1) {
  2c:	f9400660 	ldr	x0, [x19, #8]
  30:	f100041f 	cmp	x0, #0x1
  34:	54000080 	b.eq	44 <thd+0x44>  // b.none
        printf("forcing a memory access exception on thread 1 ...\n");
        int * x = (void *)-1;
        printf("%x\n", *x);
    }
//#endif
}
  38:	f9400bf3 	ldr	x19, [sp, #16]
  3c:	a8c27bfd 	ldp	x29, x30, [sp], #32
  40:	d65f03c0 	ret
        printf("forcing a memory access exception on thread 1 ...\n");
  44:	90000000 	adrp	x0, 0 <thd>
  48:	91000000 	add	x0, x0, #0x0
  4c:	94000000 	bl	0 <printf>
        printf("%x\n", *x);
  50:	92800000 	mov	x0, #0xffffffffffffffff    	// #-1
  54:	39400002 	ldrb	w2, [x0]
  58:	39400401 	ldrb	w1, [x0, #1]
  5c:	aa012042 	orr	x2, x2, x1, lsl #8
  60:	39400801 	ldrb	w1, [x0, #2]
  64:	aa014041 	orr	x1, x2, x1, lsl #16
  68:	39400c00 	ldrb	w0, [x0, #3]
  6c:	2a006021 	orr	w1, w1, w0, lsl #24
  70:	90000000 	adrp	x0, 0 <thd>
  74:	91000000 	add	x0, x0, #0x0
  78:	94000000 	bl	0 <printf>
  7c:	17ffffef 	b	38 <thd+0x38>

0000000000000080 <smp_newcpu>:
{
  80:	a9be7bfd 	stp	x29, x30, [sp, #-32]!
  84:	910003fd 	mov	x29, sp
  88:	f9000bf3 	str	x19, [sp, #16]
  8c:	aa0003f3 	mov	x19, x0
    asm("mrs %0, currentel; lsr %0, %0, 2" : "=r" (status) : : );
  90:	d5384242 	mrs	x2, currentel
  94:	d342fc42 	lsr	x2, x2, #2
    asm volatile("mrs %0, tpidr_el0" : "=r" (tp) : : );
  98:	d53bd043 	mrs	x3, tpidr_el0

static inline u64
armv8_get_sp(void)
{
    u64 sp;
    asm volatile("mov %0, sp"  : "=r" (sp) : );
  9c:	910003e4 	mov	x4, sp
    printf("smp%d: el%d tls(%x) sp(%x)\n", th->thno, armv8_get_el(),
  a0:	f9400401 	ldr	x1, [x0, #8]
  a4:	90000000 	adrp	x0, 0 <thd>
  a8:	91000000 	add	x0, x0, #0x0
  ac:	94000000 	bl	0 <printf>
    th->func(th);
  b0:	f9400e61 	ldr	x1, [x19, #24]
  b4:	aa1303e0 	mov	x0, x19
  b8:	d63f0020 	blr	x1
    asm volatile("wfi");        // low power sleep
  bc:	d503207f 	wfi
};
  c0:	f9400bf3 	ldr	x19, [sp, #16]
  c4:	a8c27bfd 	ldp	x29, x30, [sp], #32
  c8:	d65f03c0 	ret

00000000000000cc <smp_init>:

int
smp_init(void)
{
  cc:	a9bb7bfd 	stp	x29, x30, [sp, #-80]!
  d0:	910003fd 	mov	x29, sp
  d4:	a90153f3 	stp	x19, x20, [sp, #16]
  d8:	a9025bf5 	stp	x21, x22, [sp, #32]
  dc:	a90363f7 	stp	x23, x24, [sp, #48]
  e0:	a9046bf9 	stp	x25, x26, [sp, #64]
    asm("mrs %0, currentel; lsr %0, %0, 2" : "=r" (status) : : );
  e4:	d5384241 	mrs	x1, currentel
  e8:	d342fc21 	lsr	x1, x1, #2
    asm volatile("mrs %0, tpidr_el0" : "=r" (tp) : : );
  ec:	d53bd042 	mrs	x2, tpidr_el0
    asm volatile("mov %0, sp"  : "=r" (sp) : );
  f0:	910003e3 	mov	x3, sp
    // announce the boot thread
    printf("smp0: el%d tls(%x) sp(%x)\n", armv8_get_el(), armv8_get_tp(), armv8_get_sp());
  f4:	90000000 	adrp	x0, 0 <thd>
  f8:	91000000 	add	x0, x0, #0x0
  fc:	94000000 	bl	0 <printf>
    asm volatile("mrs %0, tpidr_el0" : "=r" (tp) : : );
 100:	d53bd040 	mrs	x0, tpidr_el0
    asm volatile("mov %0, sp"  : "=r" (sp) : );
 104:	910003e1 	mov	x1, sp

    // make it look legitimate
    struct thread * th = get_thread_data();
    th->sp   = armv8_get_sp();
 108:	f9000001 	str	x1, [x0]
    th->thno = 0;
 10c:	f900041f 	str	xzr, [x0, #8]

    int n = 1;      // the boot cpu counts as 1
    while (smp_start_thread(thd, (void *)(u64)n) == 0)
 110:	d2800033 	mov	x19, #0x1                   	// #1
    int cpu = smp_next_cpu++;
 114:	90000015 	adrp	x21, 0 <thd>
 118:	910002b5 	add	x21, x21, #0x0
    struct thread * th = (struct thread *)mem_alloc(pool4k, 1);
 11c:	9000001a 	adrp	x26, 0 <pool4k>
 120:	52800039 	mov	w25, #0x1                   	// #1
    th->func = func;
 124:	90000018 	adrp	x24, 0 <thd>
 128:	91000318 	add	x24, x24, #0x0
 12c:	2a1303f7 	mov	w23, w19
 130:	2a1303f6 	mov	w22, w19
    int cpu = smp_next_cpu++;
 134:	b94002b4 	ldr	w20, [x21]
 138:	11000680 	add	w0, w20, #0x1
 13c:	b90002a0 	str	w0, [x21]
    struct thread * th = (struct thread *)mem_alloc(pool4k, 1);
 140:	2a1903e1 	mov	w1, w25
 144:	f9400340 	ldr	x0, [x26]
 148:	94000000 	bl	0 <mem_alloc>
 14c:	aa0003e4 	mov	x4, x0
    if (th == 0) {
 150:	b40003c0 	cbz	x0, 1c8 <smp_init+0xfc>
    th->sp   = (u64)th + 0x1000;
 154:	91400400 	add	x0, x0, #0x1, lsl #12
 158:	f9000080 	str	x0, [x4]
    th->thno = cpu;
 15c:	93407e80 	sxtw	x0, w20
 160:	f9000480 	str	x0, [x4, #8]
    th->func = func;
 164:	f9000c98 	str	x24, [x4, #24]
    th->arg0 = arg0;
 168:	f9001093 	str	x19, [x4, #32]
    th->tsk  = 0;
 16c:	f900089f 	str	xzr, [x4, #16]
    asm volatile (
 170:	58000340 	ldr	x0, 1d8 <smp_init+0x10c>
 174:	aa1403e1 	mov	x1, x20
 178:	58000342 	ldr	x2, 1e0 <smp_init+0x114>
 17c:	aa0403e3 	mov	x3, x4
 180:	d4000002 	hvc	#0x0
 184:	aa0003e4 	mov	x4, x0
    while (smp_start_thread(thd, (void *)(u64)n) == 0)
 188:	350000a4 	cbnz	w4, 19c <smp_init+0xd0>
        if (++n >= MAX_CPUS)
 18c:	110006f6 	add	w22, w23, #0x1
 190:	91000673 	add	x19, x19, #0x1
 194:	f100227f 	cmp	x19, #0x8
 198:	54fffca1 	b.ne	12c <smp_init+0x60>  // b.any
            break;

    printf("smp_init complete %d cpus\n", n);
 19c:	2a1603e1 	mov	w1, w22
 1a0:	90000000 	adrp	x0, 0 <thd>
 1a4:	91000000 	add	x0, x0, #0x0
 1a8:	94000000 	bl	0 <printf>

    return n;
}
 1ac:	2a1603e0 	mov	w0, w22
 1b0:	a94153f3 	ldp	x19, x20, [sp, #16]
 1b4:	a9425bf5 	ldp	x21, x22, [sp, #32]
 1b8:	a94363f7 	ldp	x23, x24, [sp, #48]
 1bc:	a9446bf9 	ldp	x25, x26, [sp, #64]
 1c0:	a8c57bfd 	ldp	x29, x30, [sp], #80
 1c4:	d65f03c0 	ret
        printf("pool4k empty - cannot start thread\n");
 1c8:	90000000 	adrp	x0, 0 <thd>
 1cc:	91000000 	add	x0, x0, #0x0
 1d0:	94000000 	bl	0 <printf>
        return -1;
 1d4:	17fffff2 	b	19c <smp_init+0xd0>
 1d8:	c4000003 	.word	0xc4000003
	...
